target datalayout = "e-m:e-p270:32:32-p271:32:32-p272:64:64-i64:64-i128:128-f80:128-n8:16:32:64-S128"
target triple = "x86_64-pc-linux-gnu"

%"class.nanobind::object" = type { %"class.nanobind::handle" }
%"class.nanobind::handle" = type { ptr }
%"class.nanobind::detail::ndarray_object" = type { %"class.nanobind::object" }
%"struct.nanobind::detail::type_caster.662" = type { %"struct.nanobind::detail::type_caster_base.663" }
%"struct.nanobind::detail::type_caster_base.663" = type { ptr }
%"struct.nanobind::detail::tuple.669" = type { %"struct.nanobind::detail::type_caster.662" }
%class.anon.670 = type { { i64, i64 } }
%class.anon.672 = type { i8 }
%struct.capture.671 = type { %class.anon.670 }

@_ZTIZL30nanobind_init_test_ndarray_extRN8nanobind7module_EE8Matrix4f = internal constant { ptr, ptr } { ptr getelementptr inbounds (ptr, ptr @_ZTVN10__cxxabiv117__class_type_infoE, i64 2), ptr @_ZTSZL30nanobind_init_test_ndarray_extRN8nanobind7module_EE8Matrix4f }, align 8

; Function Attrs: noinline noreturn nounwind optsize uwtable
define linkonce_odr hidden void @__clang_call_terminate(ptr noundef %0) #7 comdat {
  %2 = call ptr @__cxa_begin_catch(ptr %0) #22
  call void @_ZSt9terminatev() #24
  unreachable
}

; Function Attrs: mustprogress optsize uwtable
define linkonce_odr hidden ptr @_ZN8nanobind6object7releaseEv(ptr noundef nonnull align 8 dereferenceable(8) %0) #0 comdat align 2 {
  %2 = alloca %"class.nanobind::handle", align 8
  %3 = alloca ptr, align 8
  store ptr %0, ptr %3, align 8, !tbaa !21
  %4 = load ptr, ptr %3, align 8
  %5 = getelementptr inbounds nuw %"class.nanobind::handle", ptr %4, i32 0, i32 0
  %6 = load ptr, ptr %5, align 8, !tbaa !14
  call void @_ZN8nanobind6handleC2EPK7_object(ptr noundef nonnull align 8 dereferenceable(8) %2, ptr noundef %6) #21
  %7 = getelementptr inbounds nuw %"class.nanobind::handle", ptr %4, i32 0, i32 0
  store ptr null, ptr %7, align 8, !tbaa !14
  %8 = getelementptr inbounds nuw %"class.nanobind::handle", ptr %2, i32 0, i32 0
  %9 = load ptr, ptr %8, align 8
  ret ptr %9
}

; Function Attrs: mustprogress nounwind optsize uwtable
define linkonce_odr hidden void @_ZN8nanobind6objectD2Ev(ptr noundef nonnull align 8 dereferenceable(8) %0) unnamed_addr #8 comdat align 2 {
  %2 = alloca ptr, align 8
  store ptr %0, ptr %2, align 8, !tbaa !21
  %3 = load ptr, ptr %2, align 8
  %4 = call noundef nonnull align 8 dereferenceable(8) ptr @_ZNKR8nanobind6handle7dec_refEv(ptr noundef nonnull align 8 dereferenceable(8) %3) #23
  ret void
}

; Function Attrs: alwaysinline mustprogress nounwind optsize uwtable
define linkonce_odr hidden noundef ptr @_ZNK8nanobind6handle3ptrEv(ptr noundef nonnull align 8 dereferenceable(8) %0) #5 comdat align 2 {
  %2 = alloca ptr, align 8
  store ptr %0, ptr %2, align 8, !tbaa !12
  %3 = load ptr, ptr %2, align 8
  %4 = getelementptr inbounds nuw %"class.nanobind::handle", ptr %3, i32 0, i32 0
  %5 = load ptr, ptr %4, align 8, !tbaa !14
  ret ptr %5
}

; Function Attrs: mustprogress nounwind optsize uwtable
define linkonce_odr hidden ptr @_ZN8nanobind6detail11type_casterINS0_14ndarray_objectIJfNS_5numpyENS0_5shapeIJLl4ELl4EEEENS_8f_contigEEEEiE8from_cppEOS7_NS_9rv_policyEPNS0_12cleanup_listE(ptr noundef nonnull align 8 dereferenceable(8) %0, i32 noundef %1, ptr noundef %2) #8 comdat align 2 personality ptr @__gxx_personality_v0 {
  %4 = alloca %"class.nanobind::handle", align 8
  %5 = alloca ptr, align 8
  %6 = alloca i32, align 4
  %7 = alloca ptr, align 8
  store ptr %0, ptr %5, align 8, !tbaa !1015
  store i32 %1, ptr %6, align 4, !tbaa !18
  store ptr %2, ptr %7, align 8, !tbaa !127
  %8 = load ptr, ptr %5, align 8, !tbaa !1015
  %9 = invoke ptr @_ZN8nanobind6object7releaseEv(ptr noundef nonnull align 8 dereferenceable(8) %8) #21
          to label %10 unwind label %14

10:                                               ; preds = %3
  %11 = getelementptr inbounds nuw %"class.nanobind::handle", ptr %4, i32 0, i32 0
  store ptr %9, ptr %11, align 8
  %12 = getelementptr inbounds nuw %"class.nanobind::handle", ptr %4, i32 0, i32 0
  %13 = load ptr, ptr %12, align 8
  ret ptr %13

14:                                               ; preds = %3
  %15 = landingpad { ptr, i32 }
          catch ptr null
  %16 = extractvalue { ptr, i32 } %15, 0
  call void @__clang_call_terminate(ptr %16) #24
  unreachable
}

; Function Attrs: alwaysinline mustprogress optsize uwtable
define internal void @_ZZN8nanobind16cpp_function_defIZL30nanobind_init_test_ndarray_extRNS_7module_EE8Matrix4fNS_6detail14ndarray_objectIJfNS_5numpyENS4_5shapeIJLl4ELl4EEEENS_8f_contigEEEES3_JEJNS_5scopeENS_4nameENS_9is_methodEEEEvMT1_FT0_DpT2_EDpRKT3_ENKUlPS3_E_clESO_(ptr dead_on_unwind noalias writable sret(%"class.nanobind::detail::ndarray_object") align 8 %0, ptr noundef nonnull align 8 dereferenceable(16) %1, ptr noundef %2) #3 align 2 {
  %4 = alloca ptr, align 8
  %5 = alloca ptr, align 8
  %6 = alloca ptr, align 8
  store ptr %0, ptr %4, align 8
  store ptr %1, ptr %5, align 8, !tbaa !29
  store ptr %2, ptr %6, align 8, !tbaa !68
  %7 = load ptr, ptr %5, align 8
  %8 = load ptr, ptr %6, align 8, !tbaa !68
  %9 = getelementptr inbounds nuw %class.anon.670, ptr %7, i32 0, i32 0
  %10 = load { i64, i64 }, ptr %9, align 8, !tbaa !1011
  %11 = extractvalue { i64, i64 } %10, 1
  %12 = getelementptr inbounds i8, ptr %8, i64 %11
  %13 = extractvalue { i64, i64 } %10, 0
  %14 = and i64 %13, 1
  %15 = icmp ne i64 %14, 0
  br i1 %15, label %16, label %21

16:                                               ; preds = %3
  %17 = load ptr, ptr %12, align 8, !tbaa !10
  %18 = sub i64 %13, 1
  %19 = getelementptr i8, ptr %17, i64 %18, !nosanitize !36
  %20 = load ptr, ptr %19, align 8, !nosanitize !36
  br label %23

21:                                               ; preds = %3
  %22 = inttoptr i64 %13 to ptr
  br label %23

23:                                               ; preds = %21, %16
  %24 = phi ptr [ %20, %16 ], [ %22, %21 ]
  call void %24(ptr dead_on_unwind writable sret(%"class.nanobind::detail::ndarray_object") align 8 %0, ptr noundef nonnull align 4 dereferenceable(64) %12) #21
  ret void
}

; Function Attrs: mustprogress nounwind optsize uwtable
define internal noundef ptr @_ZN8nanobind6detail16type_caster_baseIZL30nanobind_init_test_ndarray_extRNS_7module_EE8Matrix4fEcvPS4_Ev(ptr noundef nonnull align 8 dereferenceable(8) %0) #8 align 2 {
  %2 = alloca ptr, align 8
  store ptr %0, ptr %2, align 8, !tbaa !995
  %3 = load ptr, ptr %2, align 8
  %4 = getelementptr inbounds nuw %"struct.nanobind::detail::type_caster_base.663", ptr %3, i32 0, i32 0
  %5 = load ptr, ptr %4, align 8, !tbaa !997
  ret ptr %5
}

; Function Attrs: alwaysinline mustprogress nounwind optsize uwtable
define internal noundef zeroext i1 @_ZN8nanobind6detail16type_caster_baseIZL30nanobind_init_test_ndarray_extRNS_7module_EE8Matrix4fE11from_pythonENS_6handleEhPNS0_12cleanup_listE(ptr noundef nonnull align 8 dereferenceable(8) %0, ptr %1, i8 noundef zeroext %2, ptr noundef %3) #5 align 2 {
  %5 = alloca %"class.nanobind::handle", align 8
  %6 = alloca ptr, align 8
  %7 = alloca i8, align 1
  %8 = alloca ptr, align 8
  %9 = getelementptr inbounds nuw %"class.nanobind::handle", ptr %5, i32 0, i32 0
  store ptr %1, ptr %9, align 8
  store ptr %0, ptr %6, align 8, !tbaa !995
  store i8 %2, ptr %7, align 1, !tbaa !20
  store ptr %3, ptr %8, align 8, !tbaa !127
  %10 = load ptr, ptr %6, align 8
  %11 = call noundef ptr @_ZNK8nanobind6handle3ptrEv(ptr noundef nonnull align 8 dereferenceable(8) %5) #21
  %12 = load i8, ptr %7, align 1, !tbaa !20
  %13 = load ptr, ptr %8, align 8, !tbaa !127
  %14 = getelementptr inbounds nuw %"struct.nanobind::detail::type_caster_base.663", ptr %10, i32 0, i32 0
  %15 = call noundef zeroext i1 @_ZN8nanobind6detail11nb_type_getEPKSt9type_infoP7_objecthPNS0_12cleanup_listEPPv(ptr noundef @_ZTIZL30nanobind_init_test_ndarray_extRN8nanobind7module_EE8Matrix4f, ptr noundef %11, i8 noundef zeroext %12, ptr noundef %13, ptr noundef %14) #23
  ret i1 %15
}

; Function Attrs: alwaysinline mustprogress nounwind optsize uwtable
define linkonce_odr hidden void @_ZN8nanobind6handleC2EPK7_object(ptr noundef nonnull align 8 dereferenceable(8) %0, ptr noundef %1) unnamed_addr #5 comdat align 2 {
  %3 = alloca ptr, align 8
  %4 = alloca ptr, align 8
  store ptr %0, ptr %3, align 8, !tbaa !12
  store ptr %1, ptr %4, align 8, !tbaa !3
  %5 = load ptr, ptr %3, align 8
  %6 = getelementptr inbounds nuw %"class.nanobind::handle", ptr %5, i32 0, i32 0
  %7 = load ptr, ptr %4, align 8, !tbaa !3
  store ptr %7, ptr %6, align 8, !tbaa !14
  ret void
}

; Function Attrs: alwaysinline mustprogress nounwind optsize uwtable
define internal noundef nonnull align 8 dereferenceable(8) ptr @_ZN8nanobind6detail5tupleIJNS0_11type_casterIZL30nanobind_init_test_ndarray_extRNS_7module_EE8Matrix4fiEEEE3getILm0EEERDav(ptr noundef nonnull align 8 dereferenceable(8) %0) #5 align 2 {
  %2 = alloca ptr, align 8
  store ptr %0, ptr %2, align 8, !tbaa !1005
  %3 = load ptr, ptr %2, align 8
  %4 = getelementptr inbounds nuw %"struct.nanobind::detail::tuple.669", ptr %3, i32 0, i32 0
  ret ptr %4
}

; Function Attrs: alwaysinline mustprogress optsize uwtable
define internal noundef ptr @_ZZN8nanobind6detail11func_createILb0ELb1EZNS_16cpp_function_defIZL30nanobind_init_test_ndarray_extRNS_7module_EE8Matrix4fNS0_14ndarray_objectIJfNS_5numpyENS0_5shapeIJLl4ELl4EEEENS_8f_contigEEEES5_JEJNS_5scopeENS_4nameENS_9is_methodEEEEvMT1_FT0_DpT2_EDpRKT3_EUlPS5_E_SB_JSP_EJLm0EEJSC_SD_SE_EEEP7_objectOSF_PFT2_DpSL_ESt16integer_sequenceImJXspT4_EEEDpRKT5_ENKUlPvPSS_PhNS_9rv_policyEPNS0_12cleanup_listEE_clES14_S15_S16_S17_S19_(ptr noundef nonnull align 1 dereferenceable(1) %0, ptr noundef %1, ptr noundef %2, ptr noundef %3, i32 noundef %4, ptr noundef %5) #3 align 2 {
  %7 = alloca ptr, align 8
  %8 = alloca ptr, align 8
  %9 = alloca ptr, align 8
  %10 = alloca ptr, align 8
  %11 = alloca ptr, align 8
  %12 = alloca i32, align 4
  %13 = alloca ptr, align 8
  %14 = alloca ptr, align 8
  %15 = alloca %"struct.nanobind::detail::tuple.669", align 8
  %16 = alloca %"class.nanobind::handle", align 8
  %17 = alloca i32, align 4
  %18 = alloca ptr, align 8
  %19 = alloca %"class.nanobind::handle", align 8
  %20 = alloca %"class.nanobind::detail::ndarray_object", align 8
  store ptr %0, ptr %8, align 8, !tbaa !29
  store ptr %1, ptr %9, align 8, !tbaa !29
  store ptr %2, ptr %10, align 8, !tbaa !125
  store ptr %3, ptr %11, align 8, !tbaa !27
  store i32 %4, ptr %12, align 4, !tbaa !18
  store ptr %5, ptr %13, align 8, !tbaa !127
  call void @llvm.lifetime.start.p0(i64 8, ptr %14) #22
  %21 = load ptr, ptr %9, align 8, !tbaa !29
  store ptr %21, ptr %14, align 8, !tbaa !1013
  call void @llvm.lifetime.start.p0(i64 8, ptr %15) #22
  %22 = call noundef nonnull align 8 dereferenceable(8) ptr @_ZN8nanobind6detail5tupleIJNS0_11type_casterIZL30nanobind_init_test_ndarray_extRNS_7module_EE8Matrix4fiEEEE3getILm0EEERDav(ptr noundef nonnull align 8 dereferenceable(8) %15) #21
  %23 = load ptr, ptr %10, align 8, !tbaa !125
  %24 = getelementptr inbounds nuw ptr, ptr %23, i64 0
  %25 = load ptr, ptr %24, align 8, !tbaa !3
  call void @_ZN8nanobind6handleC2EPK7_object(ptr noundef nonnull align 8 dereferenceable(8) %16, ptr noundef %25) #21
  %26 = load ptr, ptr %11, align 8, !tbaa !27
  %27 = getelementptr inbounds nuw i8, ptr %26, i64 0
  %28 = load i8, ptr %27, align 1, !tbaa !20
  %29 = load ptr, ptr %13, align 8, !tbaa !127
  %30 = getelementptr inbounds nuw %"class.nanobind::handle", ptr %16, i32 0, i32 0
  %31 = load ptr, ptr %30, align 8
  %32 = call noundef zeroext i1 @_ZN8nanobind6detail16type_caster_baseIZL30nanobind_init_test_ndarray_extRNS_7module_EE8Matrix4fE11from_pythonENS_6handleEhPNS0_12cleanup_listE(ptr noundef nonnull align 8 dereferenceable(8) %22, ptr %31, i8 noundef zeroext %28, ptr noundef %29) #23
  br i1 %32, label %34, label %33

33:                                               ; preds = %6
  store ptr inttoptr (i64 1 to ptr), ptr %7, align 8
  store i32 1, ptr %17, align 4
  br label %45

34:                                               ; preds = %6
  call void @llvm.lifetime.start.p0(i64 8, ptr %18) #22
  call void @llvm.lifetime.start.p0(i64 8, ptr %19) #22
  call void @llvm.lifetime.start.p0(i64 8, ptr %20) #22
  %35 = load ptr, ptr %14, align 8, !tbaa !1013
  %36 = getelementptr inbounds nuw %struct.capture.671, ptr %35, i32 0, i32 0
  %37 = call noundef nonnull align 8 dereferenceable(8) ptr @_ZN8nanobind6detail5tupleIJNS0_11type_casterIZL30nanobind_init_test_ndarray_extRNS_7module_EE8Matrix4fiEEEE3getILm0EEERDav(ptr noundef nonnull align 8 dereferenceable(8) %15) #21
  %38 = call noundef ptr @_ZN8nanobind6detail16type_caster_baseIZL30nanobind_init_test_ndarray_extRNS_7module_EE8Matrix4fEcvPS4_Ev(ptr noundef nonnull align 8 dereferenceable(8) %37) #21
  call void @_ZZN8nanobind16cpp_function_defIZL30nanobind_init_test_ndarray_extRNS_7module_EE8Matrix4fNS_6detail14ndarray_objectIJfNS_5numpyENS4_5shapeIJLl4ELl4EEEENS_8f_contigEEEES3_JEJNS_5scopeENS_4nameENS_9is_methodEEEEvMT1_FT0_DpT2_EDpRKT3_ENKUlPS3_E_clESO_(ptr dead_on_unwind writable sret(%"class.nanobind::detail::ndarray_object") align 8 %20, ptr noundef nonnull align 8 dereferenceable(16) %36, ptr noundef %38) #21
  %39 = load i32, ptr %12, align 4, !tbaa !18
  %40 = load ptr, ptr %13, align 8, !tbaa !127
  %41 = call ptr @_ZN8nanobind6detail11type_casterINS0_14ndarray_objectIJfNS_5numpyENS0_5shapeIJLl4ELl4EEEENS_8f_contigEEEEiE8from_cppEOS7_NS_9rv_policyEPNS0_12cleanup_listE(ptr noundef nonnull align 8 dereferenceable(8) %20, i32 noundef %39, ptr noundef %40) #23
  %42 = getelementptr inbounds nuw %"class.nanobind::handle", ptr %19, i32 0, i32 0
  store ptr %41, ptr %42, align 8
  %43 = call noundef ptr @_ZNK8nanobind6handle3ptrEv(ptr noundef nonnull align 8 dereferenceable(8) %19) #21
  store ptr %43, ptr %18, align 8, !tbaa !3
  call void @_ZN8nanobind6objectD2Ev(ptr noundef nonnull align 8 dereferenceable(8) %20) #23
  call void @llvm.lifetime.end.p0(i64 8, ptr %20) #22
  call void @llvm.lifetime.end.p0(i64 8, ptr %19) #22
  %44 = load ptr, ptr %18, align 8, !tbaa !3
  store ptr %44, ptr %7, align 8
  store i32 1, ptr %17, align 4
  call void @llvm.lifetime.end.p0(i64 8, ptr %18) #22
  br label %45

45:                                               ; preds = %34, %33
  call void @llvm.lifetime.end.p0(i64 8, ptr %15) #22
  call void @llvm.lifetime.end.p0(i64 8, ptr %14) #22
  %46 = load ptr, ptr %7, align 8
  ret ptr %46
}

; Function Attrs: inlinehint mustprogress optsize uwtable
define internal noundef ptr @_ZZN8nanobind6detail11func_createILb0ELb1EZNS_16cpp_function_defIZL30nanobind_init_test_ndarray_extRNS_7module_EE8Matrix4fNS0_14ndarray_objectIJfNS_5numpyENS0_5shapeIJLl4ELl4EEEENS_8f_contigEEEES5_JEJNS_5scopeENS_4nameENS_9is_methodEEEEvMT1_FT0_DpT2_EDpRKT3_EUlPS5_E_SB_JSP_EJLm0EEJSC_SD_SE_EEEP7_objectOSF_PFT2_DpSL_ESt16integer_sequenceImJXspT4_EEEDpRKT5_ENUlPvPSS_PhNS_9rv_policyEPNS0_12cleanup_listEE_8__invokeES14_S15_S16_S17_S19_(ptr noundef %0, ptr noundef %1, ptr noundef %2, i32 noundef %3, ptr noundef %4) #9 align 2 {
  %6 = alloca ptr, align 8
  %7 = alloca ptr, align 8
  %8 = alloca ptr, align 8
  %9 = alloca i32, align 4
  %10 = alloca ptr, align 8
  %11 = alloca %class.anon.672, align 1
  store ptr %0, ptr %6, align 8, !tbaa !29
  store ptr %1, ptr %7, align 8, !tbaa !125
  store ptr %2, ptr %8, align 8, !tbaa !27
  store i32 %3, ptr %9, align 4, !tbaa !18
  store ptr %4, ptr %10, align 8, !tbaa !127
  %12 = load ptr, ptr %6, align 8, !tbaa !29
  %13 = load ptr, ptr %7, align 8, !tbaa !125
  %14 = load ptr, ptr %8, align 8, !tbaa !27
  %15 = load i32, ptr %9, align 4, !tbaa !18
  %16 = load ptr, ptr %10, align 8, !tbaa !127
  %17 = call noundef ptr @_ZZN8nanobind6detail11func_createILb0ELb1EZNS_16cpp_function_defIZL30nanobind_init_test_ndarray_extRNS_7module_EE8Matrix4fNS0_14ndarray_objectIJfNS_5numpyENS0_5shapeIJLl4ELl4EEEENS_8f_contigEEEES5_JEJNS_5scopeENS_4nameENS_9is_methodEEEEvMT1_FT0_DpT2_EDpRKT3_EUlPS5_E_SB_JSP_EJLm0EEJSC_SD_SE_EEEP7_objectOSF_PFT2_DpSL_ESt16integer_sequenceImJXspT4_EEEDpRKT5_ENKUlPvPSS_PhNS_9rv_policyEPNS0_12cleanup_listEE_clES14_S15_S16_S17_S19_(ptr noundef nonnull align 1 dereferenceable(1) %11, ptr noundef %12, ptr noundef %13, ptr noundef %14, i32 noundef %15, ptr noundef %16) #21
  ret ptr %17
}