; Function Attrs: inlinehint mustprogress optsize uwtable
define internal noundef ptr @_ZZN8nanobind6detail11func_createILb0ELb1EZNS_16cpp_function_defIZL30nanobind_init_test_ndarray_extRNS_7module_EE8Matrix4fNS0_14ndarray_objectIJfNS_5numpyENS0_5shapeIJLl4ELl4EEEENS_8f_contigEEEES5_JEJNS_5scopeENS_4nameENS_9is_methodEEEEvMT1_FT0_DpT2_EDpRKT3_EUlPS5_E_SB_JSP_EJLm0EEJSC_SD_SE_EEEP7_objectOSF_PFT2_DpSL_ESt16integer_sequenceImJXspT4_EEEDpRKT5_ENUlPvPSS_PhNS_9rv_policyEPNS0_12cleanup_listEE_8__invokeES14_S15_S16_S17_S19_(ptr noundef readonly captures(none) %0, ptr noundef readonly captures(none) %1, ptr noundef readonly captures(none) %2, i32 %3, ptr noundef %4) #10 align 2 personality ptr @__gxx_personality_v0 {
  %6 = alloca %"struct.nanobind::detail::tuple.669", align 8
  %7 = alloca %"class.nanobind::detail::ndarray_object", align 8
  call void @llvm.lifetime.start.p0(i64 8, ptr nonnull %6) #22
  %8 = load ptr, ptr %1, align 8, !tbaa !93
  %9 = load i8, ptr %2, align 1, !tbaa !60
  %10 = call noundef zeroext i1 @_ZN8nanobind6detail11nb_type_getEPKSt9type_infoP7_objecthPNS0_12cleanup_listEPPv(ptr noundef nonnull @_ZTIZL30nanobind_init_test_ndarray_extRN8nanobind7module_EE8Matrix4f, ptr noundef %8, i8 noundef zeroext %9, ptr noundef %4, ptr noundef nonnull align 8 dereferenceable(8) %6) #23
  br i1 %10, label %11, label %_ZZN8nanobind6detail11func_createILb0ELb1EZNS_16cpp_function_defIZL30nanobind_init_test_ndarray_extRNS_7module_EE8Matrix4fNS0_14ndarray_objectIJfNS_5numpyENS0_5shapeIJLl4ELl4EEEENS_8f_contigEEEES5_JEJNS_5scopeENS_4nameENS_9is_methodEEEEvMT1_FT0_DpT2_EDpRKT3_EUlPS5_E_SB_JSP_EJLm0EEJSC_SD_SE_EEEP7_objectOSF_PFT2_DpSL_ESt16integer_sequenceImJXspT4_EEEDpRKT5_ENKUlPvPSS_PhNS_9rv_policyEPNS0_12cleanup_listEE_clES14_S15_S16_S17_S19_.exit

11:                                               ; preds = %5
  call void @llvm.lifetime.start.p0(i64 8, ptr nonnull %7) #22
  %.val = load ptr, ptr %6, align 8, !tbaa !325
  %.unpack.i = load i64, ptr %0, align 8, !tbaa !333, !noalias !335
  %.elt2.i = getelementptr inbounds nuw i8, ptr %0, i64 8
  %.unpack3.i = load i64, ptr %.elt2.i, align 8, !tbaa !333, !noalias !335
  %12 = getelementptr inbounds i8, ptr %.val, i64 %.unpack3.i
  %13 = and i64 %.unpack.i, 1
  %.not.i = icmp eq i64 %13, 0
  br i1 %.not.i, label %19, label %14

14:                                               ; preds = %11
  %15 = load ptr, ptr %12, align 8, !tbaa !267, !noalias !335
  %16 = getelementptr i8, ptr %15, i64 %.unpack.i
  %17 = getelementptr i8, ptr %16, i64 -1
  %18 = load ptr, ptr %17, align 8, !noalias !335, !nosanitize !269
  br label %_ZZN8nanobind16cpp_function_defIZL30nanobind_init_test_ndarray_extRNS_7module_EE8Matrix4fNS_6detail14ndarray_objectIJfNS_5numpyENS4_5shapeIJLl4ELl4EEEENS_8f_contigEEEES3_JEJNS_5scopeENS_4nameENS_9is_methodEEEEvMT1_FT0_DpT2_EDpRKT3_ENKUlPS3_E_clESO_.exit

19:                                               ; preds = %11
  %20 = inttoptr i64 %.unpack.i to ptr
  br label %_ZZN8nanobind16cpp_function_defIZL30nanobind_init_test_ndarray_extRNS_7module_EE8Matrix4fNS_6detail14ndarray_objectIJfNS_5numpyENS4_5shapeIJLl4ELl4EEEENS_8f_contigEEEES3_JEJNS_5scopeENS_4nameENS_9is_methodEEEEvMT1_FT0_DpT2_EDpRKT3_ENKUlPS3_E_clESO_.exit

_ZZN8nanobind16cpp_function_defIZL30nanobind_init_test_ndarray_extRNS_7module_EE8Matrix4fNS_6detail14ndarray_objectIJfNS_5numpyENS4_5shapeIJLl4ELl4EEEENS_8f_contigEEEES3_JEJNS_5scopeENS_4nameENS_9is_methodEEEEvMT1_FT0_DpT2_EDpRKT3_ENKUlPS3_E_clESO_.exit: ; preds = %14, %19
  %21 = phi ptr [ %18, %14 ], [ %20, %19 ]
  call void %21(ptr dead_on_unwind nonnull writable sret(%"class.nanobind::detail::ndarray_object") align 8 %7, ptr noundef nonnull align 4 dereferenceable(64) %12) #21
  %22 = load ptr, ptr %7, align 8, !tbaa !58
  store ptr null, ptr %7, align 8, !tbaa !58
  %23 = call noundef nonnull align 8 dereferenceable(8) ptr @_ZNKR8nanobind6handle7dec_refEv(ptr noundef nonnull align 8 dereferenceable(8) %7) #23
  call void @llvm.lifetime.end.p0(i64 8, ptr nonnull %7) #22
  br label %_ZZN8nanobind6detail11func_createILb0ELb1EZNS_16cpp_function_defIZL30nanobind_init_test_ndarray_extRNS_7module_EE8Matrix4fNS0_14ndarray_objectIJfNS_5numpyENS0_5shapeIJLl4ELl4EEEENS_8f_contigEEEES5_JEJNS_5scopeENS_4nameENS_9is_methodEEEEvMT1_FT0_DpT2_EDpRKT3_EUlPS5_E_SB_JSP_EJLm0EEJSC_SD_SE_EEEP7_objectOSF_PFT2_DpSL_ESt16integer_sequenceImJXspT4_EEEDpRKT5_ENKUlPvPSS_PhNS_9rv_policyEPNS0_12cleanup_listEE_clES14_S15_S16_S17_S19_.exit

_ZZN8nanobind6detail11func_createILb0ELb1EZNS_16cpp_function_defIZL30nanobind_init_test_ndarray_extRNS_7module_EE8Matrix4fNS0_14ndarray_objectIJfNS_5numpyENS0_5shapeIJLl4ELl4EEEENS_8f_contigEEEES5_JEJNS_5scopeENS_4nameENS_9is_methodEEEEvMT1_FT0_DpT2_EDpRKT3_EUlPS5_E_SB_JSP_EJLm0EEJSC_SD_SE_EEEP7_objectOSF_PFT2_DpSL_ESt16integer_sequenceImJXspT4_EEEDpRKT5_ENKUlPvPSS_PhNS_9rv_policyEPNS0_12cleanup_listEE_clES14_S15_S16_S17_S19_.exit: ; preds = %5, %_ZZN8nanobind16cpp_function_defIZL30nanobind_init_test_ndarray_extRNS_7module_EE8Matrix4fNS_6detail14ndarray_objectIJfNS_5numpyENS4_5shapeIJLl4ELl4EEEENS_8f_contigEEEES3_JEJNS_5scopeENS_4nameENS_9is_methodEEEEvMT1_FT0_DpT2_EDpRKT3_ENKUlPS3_E_clESO_.exit
  %.0.i = phi ptr [ %22, %_ZZN8nanobind16cpp_function_defIZL30nanobind_init_test_ndarray_extRNS_7module_EE8Matrix4fNS_6detail14ndarray_objectIJfNS_5numpyENS4_5shapeIJLl4ELl4EEEENS_8f_contigEEEES3_JEJNS_5scopeENS_4nameENS_9is_methodEEEEvMT1_FT0_DpT2_EDpRKT3_ENKUlPS3_E_clESO_.exit ], [ inttoptr (i64 1 to ptr), %5 ]
  call void @llvm.lifetime.end.p0(i64 8, ptr nonnull %6) #22
  ret ptr %.0.i
}